target datalayout = "e-m:e-p270:32:32-p271:32:32-p272:64:64-i64:64-i128:128-f80:128-n8:16:32:64-S128"
target triple = "x86_64-pc-linux-gnu"

%struct.ARKodeMRIStepMemRec = type { ptr, ptr, i32, i32, i32, i32, i32, ptr, ptr, i32, i32, i32, ptr, i32, i32, i32, i32, i32, ptr, ptr, ptr, ptr, ptr, ptr, ptr, i32, ptr, i32, ptr, double, double, double, double, i32, double, double, double, double, double, double, i32, i64, i32, i32, i32, ptr, ptr, ptr, ptr, ptr, ptr, ptr, ptr, ptr, double, double, double, i64, i64, i64, i64, i64, i64, i32, i32, i32, double, double, ptr, i32, ptr, ptr }
%struct.ARKodeMemRec = type { ptr, double, ptr, i32, i32, double, double, ptr, i32, double, ptr, i32, i32, ptr, ptr, i32, ptr, ptr, i32, ptr, ptr, ptr, ptr, ptr, ptr, ptr, ptr, ptr, ptr, ptr, ptr, ptr, ptr, ptr, i32, ptr, ptr, i32, ptr, i32, ptr, ptr, ptr, ptr, ptr, ptr, ptr, ptr, ptr, ptr, ptr, ptr, ptr, ptr, ptr, ptr, ptr, ptr, ptr, ptr, ptr, ptr, ptr, ptr, ptr, ptr, i32, ptr, ptr, ptr, ptr, ptr, ptr, ptr, i32, ptr, ptr, ptr, i32, ptr, ptr, ptr, ptr, ptr, ptr, ptr, i32, i32, i32, i32, double, double, double, double, double, double, double, double, double, double, i32, ptr, i64, i32, i32, i32, i32, i64, i64, i32, i64, i64, i64, i64, i64, i64, i64, double, double, double, double, double, i32, double, double, i32, i32, i32, i32, i32, i32, i32, i32, ptr, i32, ptr, ptr, ptr, ptr, i32, i32, i32 }

@__func__.mriStep_NlsLSetup = private unnamed_addr constant [18 x i8] c"mriStep_NlsLSetup\00", align 1

; Function Attrs: nounwind uwtable
define i32 @mriStep_NlsLSetup(i32 noundef %0, ptr noundef %1, ptr noundef %2) #0 {
  %4 = alloca i32, align 4
  %5 = alloca i32, align 4
  %6 = alloca ptr, align 8
  %7 = alloca ptr, align 8
  %8 = alloca ptr, align 8
  %9 = alloca ptr, align 8
  %10 = alloca i32, align 4
  %11 = alloca i32, align 4
  store i32 %0, ptr %5, align 4, !tbaa !10
  store ptr %1, ptr %6, align 8, !tbaa !67
  store ptr %2, ptr %7, align 8, !tbaa !38
  call void @llvm.lifetime.start.p0(i64 8, ptr %8) #4
  call void @llvm.lifetime.start.p0(i64 8, ptr %9) #4
  call void @llvm.lifetime.start.p0(i64 4, ptr %10) #4
  %12 = load ptr, ptr %7, align 8, !tbaa !38
  %13 = call i32 @mriStep_AccessARKODEStepMem(ptr noundef %12, ptr noundef @__func__.mriStep_NlsLSetup, ptr noundef %8, ptr noundef %9)
  store i32 %13, ptr %10, align 4, !tbaa !10
  %14 = load i32, ptr %10, align 4, !tbaa !10
  %15 = icmp ne i32 %14, 0
  br i1 %15, label %16, label %18

16:                                               ; preds = %3
  %17 = load i32, ptr %10, align 4, !tbaa !10
  store i32 %17, ptr %4, align 4
  store i32 1, ptr %11, align 4
  br label %97

18:                                               ; preds = %3
  %19 = load i32, ptr %5, align 4, !tbaa !10
  %20 = icmp ne i32 %19, 0
  br i1 %20, label %21, label %24

21:                                               ; preds = %18
  %22 = load ptr, ptr %9, align 8, !tbaa !20
  %23 = getelementptr inbounds nuw %struct.ARKodeMRIStepMemRec, ptr %22, i32 0, i32 43
  store i32 1, ptr %23, align 4, !tbaa !68
  br label %24

24:                                               ; preds = %21, %18
  %25 = load ptr, ptr %9, align 8, !tbaa !20
  %26 = getelementptr inbounds nuw %struct.ARKodeMRIStepMemRec, ptr %25, i32 0, i32 59
  %27 = load i64, ptr %26, align 8, !tbaa !69
  %28 = add nsw i64 %27, 1
  store i64 %28, ptr %26, align 8, !tbaa !69
  %29 = load ptr, ptr %9, align 8, !tbaa !20
  %30 = getelementptr inbounds nuw %struct.ARKodeMRIStepMemRec, ptr %29, i32 0, i32 47
  %31 = load ptr, ptr %30, align 8, !tbaa !65
  %32 = load ptr, ptr %8, align 8, !tbaa !3
  %33 = load ptr, ptr %9, align 8, !tbaa !20
  %34 = getelementptr inbounds nuw %struct.ARKodeMRIStepMemRec, ptr %33, i32 0, i32 43
  %35 = load i32, ptr %34, align 4, !tbaa !68
  %36 = load ptr, ptr %8, align 8, !tbaa !3
  %37 = getelementptr inbounds nuw %struct.ARKodeMemRec, ptr %36, i32 0, i32 98
  %38 = load double, ptr %37, align 8, !tbaa !46
  %39 = load ptr, ptr %8, align 8, !tbaa !3
  %40 = getelementptr inbounds nuw %struct.ARKodeMemRec, ptr %39, i32 0, i32 75
  %41 = load ptr, ptr %40, align 8, !tbaa !40
  %42 = load ptr, ptr %9, align 8, !tbaa !20
  %43 = getelementptr inbounds nuw %struct.ARKodeMRIStepMemRec, ptr %42, i32 0, i32 8
  %44 = load ptr, ptr %43, align 8, !tbaa !47
  %45 = load ptr, ptr %9, align 8, !tbaa !20
  %46 = getelementptr inbounds nuw %struct.ARKodeMRIStepMemRec, ptr %45, i32 0, i32 18
  %47 = load ptr, ptr %46, align 8, !tbaa !48
  %48 = load ptr, ptr %9, align 8, !tbaa !20
  %49 = getelementptr inbounds nuw %struct.ARKodeMRIStepMemRec, ptr %48, i32 0, i32 25
  %50 = load i32, ptr %49, align 8, !tbaa !49
  %51 = sext i32 %50 to i64
  %52 = getelementptr inbounds i32, ptr %47, i64 %51
  %53 = load i32, ptr %52, align 4, !tbaa !10
  %54 = sext i32 %53 to i64
  %55 = getelementptr inbounds ptr, ptr %44, i64 %54
  %56 = load ptr, ptr %55, align 8, !tbaa !37
  %57 = load ptr, ptr %9, align 8, !tbaa !20
  %58 = getelementptr inbounds nuw %struct.ARKodeMRIStepMemRec, ptr %57, i32 0, i32 44
  %59 = load ptr, ptr %8, align 8, !tbaa !3
  %60 = getelementptr inbounds nuw %struct.ARKodeMemRec, ptr %59, i32 0, i32 79
  %61 = load ptr, ptr %60, align 8, !tbaa !70
  %62 = load ptr, ptr %8, align 8, !tbaa !3
  %63 = getelementptr inbounds nuw %struct.ARKodeMemRec, ptr %62, i32 0, i32 80
  %64 = load ptr, ptr %63, align 8, !tbaa !71
  %65 = load ptr, ptr %8, align 8, !tbaa !3
  %66 = getelementptr inbounds nuw %struct.ARKodeMemRec, ptr %65, i32 0, i32 81
  %67 = load ptr, ptr %66, align 8, !tbaa !72
  %68 = call i32 %31(ptr noundef %32, i32 noundef %35, double noundef %38, ptr noundef %41, ptr noundef %56, ptr noundef %58, ptr noundef %61, ptr noundef %64, ptr noundef %67)
  store i32 %68, ptr %10, align 4, !tbaa !10
  %69 = load ptr, ptr %9, align 8, !tbaa !20
  %70 = getelementptr inbounds nuw %struct.ARKodeMRIStepMemRec, ptr %69, i32 0, i32 44
  %71 = load i32, ptr %70, align 8, !tbaa !73
  %72 = load ptr, ptr %6, align 8, !tbaa !67
  store i32 %71, ptr %72, align 4, !tbaa !10
  %73 = load ptr, ptr %8, align 8, !tbaa !3
  %74 = getelementptr inbounds nuw %struct.ARKodeMemRec, ptr %73, i32 0, i32 130
  store i32 0, ptr %74, align 4, !tbaa !74
  %75 = load ptr, ptr %9, align 8, !tbaa !20
  %76 = getelementptr inbounds nuw %struct.ARKodeMRIStepMemRec, ptr %75, i32 0, i32 36
  store double 1.000000e+00, ptr %76, align 8, !tbaa !57
  %77 = load ptr, ptr %9, align 8, !tbaa !20
  %78 = getelementptr inbounds nuw %struct.ARKodeMRIStepMemRec, ptr %77, i32 0, i32 31
  store double 1.000000e+00, ptr %78, align 8, !tbaa !75
  %79 = load ptr, ptr %9, align 8, !tbaa !20
  %80 = getelementptr inbounds nuw %struct.ARKodeMRIStepMemRec, ptr %79, i32 0, i32 29
  %81 = load double, ptr %80, align 8, !tbaa !54
  %82 = load ptr, ptr %9, align 8, !tbaa !20
  %83 = getelementptr inbounds nuw %struct.ARKodeMRIStepMemRec, ptr %82, i32 0, i32 30
  store double %81, ptr %83, align 8, !tbaa !76
  %84 = load ptr, ptr %8, align 8, !tbaa !3
  %85 = getelementptr inbounds nuw %struct.ARKodeMemRec, ptr %84, i32 0, i32 108
  %86 = load i64, ptr %85, align 8, !tbaa !77
  %87 = load ptr, ptr %9, align 8, !tbaa !20
  %88 = getelementptr inbounds nuw %struct.ARKodeMRIStepMemRec, ptr %87, i32 0, i32 41
  store i64 %86, ptr %88, align 8, !tbaa !78
  %89 = load i32, ptr %10, align 4, !tbaa !10
  %90 = icmp slt i32 %89, 0
  br i1 %90, label %91, label %92

91:                                               ; preds = %24
  store i32 -6, ptr %4, align 4
  store i32 1, ptr %11, align 4
  br label %97

92:                                               ; preds = %24
  %93 = load i32, ptr %10, align 4, !tbaa !10
  %94 = icmp sgt i32 %93, 0
  br i1 %94, label %95, label %96

95:                                               ; preds = %92
  store i32 4, ptr %4, align 4
  store i32 1, ptr %11, align 4
  br label %97

96:                                               ; preds = %92
  store i32 0, ptr %4, align 4
  store i32 1, ptr %11, align 4
  br label %97

97:                                               ; preds = %96, %95, %91, %16
  call void @llvm.lifetime.end.p0(i64 4, ptr %10) #4
  call void @llvm.lifetime.end.p0(i64 8, ptr %9) #4
  call void @llvm.lifetime.end.p0(i64 8, ptr %8) #4
  %98 = load i32, ptr %4, align 4
  ret i32 %98
}