; Function Attrs: nounwind uwtable
define i32 @mriStep_NlsLSetup(i32 noundef %0, ptr noundef writeonly captures(none) %1, ptr noundef %2) #0 {
  %4 = alloca ptr, align 8
  %5 = alloca ptr, align 8
  call void @llvm.lifetime.start.p0(i64 8, ptr nonnull %4) #5
  call void @llvm.lifetime.start.p0(i64 8, ptr nonnull %5) #5
  %6 = call i32 @mriStep_AccessARKODEStepMem(ptr noundef %2, ptr noundef nonnull @__func__.mriStep_NlsLSetup, ptr noundef nonnull %4, ptr noundef nonnull %5) #5
  %.not = icmp eq i32 %6, 0
  br i1 %.not, label %7, label %56

7:                                                ; preds = %3
  %.not9 = icmp eq i32 %0, 0
  %.pre = load ptr, ptr %5, align 8, !tbaa !14
  %.phi.trans.insert = getelementptr inbounds nuw i8, ptr %.pre, i64 300
  br i1 %.not9, label %._crit_edge, label %8

._crit_edge:                                      ; preds = %7
  %.pre11 = load i32, ptr %.phi.trans.insert, align 4, !tbaa !62
  br label %9

8:                                                ; preds = %7
  store i32 1, ptr %.phi.trans.insert, align 4, !tbaa !62
  br label %9

9:                                                ; preds = %._crit_edge, %8
  %10 = phi i32 [ %.pre11, %._crit_edge ], [ 1, %8 ]
  %11 = getelementptr inbounds nuw i8, ptr %.pre, i64 424
  %12 = load i64, ptr %11, align 8, !tbaa !63
  %13 = add nsw i64 %12, 1
  store i64 %13, ptr %11, align 8, !tbaa !63
  %14 = getelementptr inbounds nuw i8, ptr %.pre, i64 328
  %15 = load ptr, ptr %14, align 8, !tbaa !60
  %16 = load ptr, ptr %4, align 8, !tbaa !34
  %17 = getelementptr inbounds nuw i8, ptr %16, i64 752
  %18 = load double, ptr %17, align 8, !tbaa !42
  %19 = getelementptr inbounds nuw i8, ptr %16, i64 584
  %20 = load ptr, ptr %19, align 8, !tbaa !36
  %21 = getelementptr inbounds nuw i8, ptr %.pre, i64 48
  %22 = load ptr, ptr %21, align 8, !tbaa !43
  %23 = getelementptr inbounds nuw i8, ptr %.pre, i64 104
  %24 = load ptr, ptr %23, align 8, !tbaa !44
  %25 = getelementptr inbounds nuw i8, ptr %.pre, i64 160
  %26 = load i32, ptr %25, align 8, !tbaa !45
  %27 = sext i32 %26 to i64
  %28 = getelementptr inbounds i32, ptr %24, i64 %27
  %29 = load i32, ptr %28, align 4, !tbaa !46
  %30 = sext i32 %29 to i64
  %31 = getelementptr inbounds ptr, ptr %22, i64 %30
  %32 = load ptr, ptr %31, align 8, !tbaa !47
  %33 = getelementptr inbounds nuw i8, ptr %.pre, i64 304
  %34 = getelementptr inbounds nuw i8, ptr %16, i64 616
  %35 = load ptr, ptr %34, align 8, !tbaa !64
  %36 = getelementptr inbounds nuw i8, ptr %16, i64 624
  %37 = load ptr, ptr %36, align 8, !tbaa !65
  %38 = getelementptr inbounds nuw i8, ptr %16, i64 632
  %39 = load ptr, ptr %38, align 8, !tbaa !66
  %40 = call i32 %15(ptr noundef %16, i32 noundef %10, double noundef %18, ptr noundef %20, ptr noundef %32, ptr noundef nonnull %33, ptr noundef %35, ptr noundef %37, ptr noundef %39) #5
  %41 = load ptr, ptr %5, align 8, !tbaa !14
  %42 = getelementptr inbounds nuw i8, ptr %41, i64 304
  %43 = load i32, ptr %42, align 8, !tbaa !67
  store i32 %43, ptr %1, align 4, !tbaa !46
  %44 = load ptr, ptr %4, align 8, !tbaa !34
  %45 = getelementptr inbounds nuw i8, ptr %44, i64 972
  store i32 0, ptr %45, align 4, !tbaa !68
  %46 = getelementptr inbounds nuw i8, ptr %41, i64 248
  store double 1.000000e+00, ptr %46, align 8, !tbaa !55
  %47 = getelementptr inbounds nuw i8, ptr %41, i64 208
  store double 1.000000e+00, ptr %47, align 8, !tbaa !69
  %48 = getelementptr inbounds nuw i8, ptr %41, i64 192
  %49 = load double, ptr %48, align 8, !tbaa !52
  %50 = getelementptr inbounds nuw i8, ptr %41, i64 200
  store double %49, ptr %50, align 8, !tbaa !70
  %51 = getelementptr inbounds nuw i8, ptr %44, i64 816
  %52 = load i64, ptr %51, align 8, !tbaa !71
  %53 = getelementptr inbounds nuw i8, ptr %41, i64 288
  store i64 %52, ptr %53, align 8, !tbaa !72
  %54 = icmp slt i32 %40, 0
  br i1 %54, label %56, label %55

55:                                               ; preds = %9
  %.not10 = icmp eq i32 %40, 0
  %. = select i1 %.not10, i32 0, i32 4
  br label %56

56:                                               ; preds = %55, %9, %3
  %.0 = phi i32 [ %6, %3 ], [ -6, %9 ], [ %., %55 ]
  call void @llvm.lifetime.end.p0(i64 8, ptr nonnull %5) #5
  call void @llvm.lifetime.end.p0(i64 8, ptr nonnull %4) #5
  ret i32 %.0
}